(dp0
S'A'
p1
(dp2
S'd'
p3
(dp4
g3
(dp5
S'i'
p6
(dp7
S's'
p8
(dp9
S' '
p10
(dp11
g1
(dp12
S'b'
p13
(dp14
S'a'
p15
(dp16
g13
(dp17
g15
(dp18
S'_end_'
p19
g19
sssssssssssg13
(dp20
g6
(dp21
g3
(dp22
S'j'
p23
(dp24
g15
(dp25
S'n'
p26
(dp27
g19
g19
sssssssS'l'
p28
(dp29
S'e'
p30
(dp31
S'x'
p32
(dp33
g15
(dp34
g26
(dp35
g3
(dp36
S'r'
p37
(dp38
g6
(dp39
g15
(dp40
g19
g19
sssssssssS'g'
p41
(dp42
g6
(dp43
g30
(dp44
g37
(dp45
g8
(dp46
g19
g19
sssssssg26
(dp47
S'k'
p48
(dp49
g15
(dp50
g37
(dp51
g15
(dp52
g19
g19
sssssssS'C'
p53
(dp54
g15
(dp55
g6
(dp56
g37
(dp57
S'o'
p58
(dp59
g19
g19
ssssS'p'
p60
(dp61
g30
(dp62
g10
(dp63
S'T'
p64
(dp65
g58
(dp66
S'w'
p67
(dp68
g26
(dp69
g19
g19
ssssssssg8
(dp70
g15
(dp71
g13
(dp72
g28
(dp73
g15
(dp74
g26
(dp75
S'c'
p76
(dp77
g15
(dp78
g19
g19
ssssssssssS'h'
p79
(dp80
g15
(dp81
g26
(dp82
g41
(dp83
g8
(dp84
g79
(dp85
g15
(dp86
g19
g19
sssssssg30
(dp87
g26
(dp88
g41
(dp89
g3
(dp90
S'u'
p91
(dp92
g19
g19
ssssssg58
(dp93
g26
(dp94
g41
(dp95
S'q'
p96
(dp97
g6
(dp98
g26
(dp99
g41
(dp100
g19
g19
ssssssssssS'B'
p101
(dp102
g15
(dp103
g41
(dp104
g79
(dp105
g3
(dp106
g15
(dp107
g3
(dp108
g19
g19
ssssssg26
(dp109
g41
(dp110
g48
(dp111
g58
(dp112
g48
(dp113
g19
g19
sssssssg91
(dp114
g8
(dp115
g15
(dp116
g26
(dp117
g19
g19
sssssg30
(dp118
g6
(dp119
g23
(dp120
g6
(dp121
g26
(dp122
g41
(dp123
g19
g19
ssssssg37
(dp124
g28
(dp125
g6
(dp126
g26
(dp127
g19
g19
ssssssg58
(dp128
g41
(dp129
g58
(dp130
S't'
p131
(dp132
g19
g19
ssssssS'E'
p133
(dp134
g48
(dp135
g91
(dp136
g37
(dp137
g79
(dp138
g91
(dp139
g28
(dp140
g30
(dp141
g26
(dp142
g6
(dp143
g19
g19
sssssssssssS'D'
p144
(dp145
g15
(dp146
g37
(dp147
g10
(dp148
g30
(dp149
g8
(dp150
g10
(dp151
S'S'
p152
(dp153
g15
(dp154
g28
(dp155
g15
(dp156
g15
(dp157
S'm'
p158
(dp159
g19
g19
sssssssssssssg79
(dp160
g15
(dp161
g48
(dp162
g15
(dp163
g19
g19
sssssg91
(dp164
g37
(dp165
g13
(dp166
g15
(dp167
g26
(dp168
g19
g19
ssssssg58
(dp169
g26
(dp170
g41
(dp171
g41
(dp172
g91
(dp173
g15
(dp174
g26
(dp175
g19
g19
sssssssssS'G'
p176
(dp177
g91
(dp178
g15
(dp179
g26
(dp180
g41
(dp181
S'z'
p182
(dp183
g79
(dp184
g58
(dp185
g91
(dp186
g19
g19
ssssssssssS'F'
p187
(dp188
g58
(dp189
g8
(dp190
g79
(dp191
g15
(dp192
g26
(dp193
g19
g19
sssssssS'I'
p194
(dp195
g8
(dp196
g131
(dp197
g15
(dp198
g26
(dp199
g13
(dp200
g91
(dp201
g28
(dp202
g19
g19
sssssssssS'H'
p203
(dp204
g15
(dp205
g37
(dp206
g13
(dp207
g6
(dp208
g26
(dp209
g19
g19
sssssg26
(dp210
g41
(dp211
g182
(dp212
g79
(dp213
g58
(dp214
g91
(dp215
g19
g19
ssssssg58
(dp216
g6
(dp217
g19
g19
sssssg30
(dp218
S'f'
p219
(dp220
g30
(dp221
g6
(dp222
g19
g19
sssssg58
(dp223
g10
(dp224
g53
(dp225
g79
(dp226
g6
(dp227
g10
(dp228
S'M'
p229
(dp230
g6
(dp231
g26
(dp232
g79
(dp233
g10
(dp234
g53
(dp235
g6
(dp236
g131
(dp237
S'y'
p238
(dp239
g19
g19
sssssssssssssssg26
(dp240
g41
(dp241
g10
(dp242
S'K'
p243
(dp244
g58
(dp245
g26
(dp246
g41
(dp247
g19
g19
ssssssssssg243
(dp248
g15
(dp249
g37
(dp250
g15
(dp251
g76
(dp252
g79
(dp253
g6
(dp254
g19
g19
ssssssg13
(dp255
g91
(dp256
g28
(dp257
g19
g19
sssssg6
(dp258
g26
(dp259
g8
(dp260
g79
(dp261
g15
(dp262
g8
(dp263
g15
(dp264
g19
g19
sssssssssS'J'
p265
(dp266
g15
(dp267
g48
(dp268
g15
(dp269
g37
(dp270
g131
(dp271
g15
(dp272
g19
g19
sssssssg30
(dp273
g3
(dp274
g3
(dp275
g15
(dp276
g79
(dp277
g19
g19
ssssssg58
(dp278
g79
(dp279
g15
(dp280
g26
(dp281
g26
(dp282
g30
(dp283
g8
(dp284
g13
(dp285
g91
(dp286
g37
(dp287
g41
(dp288
g19
g19
sssssssssssssg229
(dp289
g15
(dp290
g3
(dp291
g37
(dp292
g6
(dp293
g3
(dp294
g19
g19
ssssssg30
(dp295
g32
(dp296
g6
(dp297
g76
(dp298
g58
(dp299
g10
(dp300
g53
(dp301
g6
(dp302
g131
(dp303
g238
(dp304
g19
g19
ssssssssssg28
(dp305
g13
(dp306
g58
(dp307
g91
(dp308
g37
(dp309
g26
(dp310
g30
(dp311
g19
g19
sssssssssg58
(dp312
g8
(dp313
g76
(dp314
g58
(dp315
g67
(dp316
g19
g19
sssssssS'L'
p317
(dp318
g15
(dp319
g79
(dp320
g58
(dp321
g37
(dp322
g30
(dp323
g19
g19
sssssg41
(dp324
g58
(dp325
g8
(dp326
g19
g19
sssssg6
(dp327
g158
(dp328
g15
(dp329
g19
g19
ssssg58
(dp330
g8
(dp331
g10
(dp332
g1
(dp333
g26
(dp334
g41
(dp335
g30
(dp336
g28
(dp337
g30
(dp338
g8
(dp339
g19
g19
ssssssssssg26
(dp340
g3
(dp341
g58
(dp342
g26
(dp343
g19
g19
sssssssS'N'
p344
(dp345
g15
(dp346
g6
(dp347
g37
(dp348
g58
(dp349
g13
(dp350
g6
(dp351
g19
g19
ssssssg26
(dp352
g23
(dp353
g6
(dp354
g26
(dp355
g41
(dp356
g19
g19
sssssssg30
(dp357
g67
(dp358
g10
(dp359
S'Y'
p360
(dp361
g58
(dp362
g37
(dp363
g48
(dp364
g19
g19
sssssg64
(dp365
g15
(dp366
g6
(dp367
g60
(dp368
g30
(dp369
g6
(dp370
g10
(dp371
g53
(dp372
g6
(dp373
g131
(dp374
g238
(dp375
g19
g19
ssssssssssssssssS'Q'
p376
(dp377
g15
(dp378
g28
(dp379
g238
(dp380
g91
(dp381
g13
(dp382
g6
(dp383
g15
(dp384
g19
g19
ssssssssg91
(dp385
g15
(dp386
g26
(dp387
g182
(dp388
g79
(dp389
g58
(dp390
g91
(dp391
g19
g19
sssssssssS'P'
p392
(dp393
g238
(dp394
g58
(dp395
g26
(dp396
g41
(dp397
g238
(dp398
g15
(dp399
g26
(dp400
g41
(dp401
g19
g19
ssssssssssg152
(dp402
g15
(dp403
g6
(dp404
g26
(dp405
g131
(dp406
g10
(dp407
g392
(dp408
g30
(dp409
g131
(dp410
g30
(dp411
g37
(dp412
g8
(dp413
g13
(dp414
g91
(dp415
g37
(dp416
g41
(dp417
g19
g19
sssssssssssssssg58
(dp418
g10
(dp419
g392
(dp420
g15
(dp421
g91
(dp422
g28
(dp423
g58
(dp424
g19
g19
ssssssssg26
(dp425
g131
(dp426
g6
(dp427
g15
(dp428
g41
(dp429
g58
(dp430
g19
g19
ssssssssg30
(dp431
g58
(dp432
g91
(dp433
g28
(dp434
g19
g19
sssssg6
(dp435
g26
(dp436
g41
(dp437
g15
(dp438
g60
(dp439
g58
(dp440
g37
(dp441
g30
(dp442
g19
g19
sssssssssg79
(dp443
g15
(dp444
g26
(dp445
g131
(dp446
g58
(dp447
g91
(dp448
g19
g19
ssssg41
(dp449
g79
(dp450
g15
(dp451
g6
(dp452
g19
g19
sssssssg30
(dp453
g26
(dp454
g238
(dp455
g15
(dp456
g26
(dp457
g41
(dp458
g19
g19
sssssg182
(dp459
g79
(dp460
g30
(dp461
g26
(dp462
g19
g19
ssssssssg91
(dp463
g182
(dp464
g79
(dp465
g58
(dp466
g91
(dp467
g19
g19
ssssssg238
(dp468
g3
(dp469
g26
(dp470
g30
(dp471
g238
(dp472
g19
g19
sssssssS'R'
p473
(dp474
g6
(dp475
g238
(dp476
g15
(dp477
g3
(dp478
g79
(dp479
g19
g19
sssssg58
(dp480
g10
(dp481
g3
(dp482
g30
(dp483
g10
(dp484
g265
(dp485
g15
(dp486
g26
(dp487
g30
(dp488
g6
(dp489
g37
(dp490
g58
(dp491
g19
g19
sssssssssssssssg64
(dp492
g6
(dp493
g15
(dp494
g26
(dp495
g23
(dp496
g6
(dp497
g26
(dp498
g19
g19
sssssssg30
(dp499
g79
(dp500
g37
(dp501
g15
(dp502
g26
(dp503
g19
g19
ssssssg58
(dp504
g48
(dp505
g238
(dp506
g58
(dp507
g19
g19
ssssssS'W'
p508
(dp509
g30
(dp510
g26
(dp511
g182
(dp512
g79
(dp513
g58
(dp514
g91
(dp515
g19
g19
sssssssg91
(dp516
g79
(dp517
g15
(dp518
g26
(dp519
g19
g19
ssssssg360
(dp520
g15
(dp521
g26
(dp522
g41
(dp523
g58
(dp524
g26
(dp525
g19
g19
ssssssg58
(dp526
g48
(dp527
g58
(dp528
g79
(dp529
g15
(dp530
g158
(dp531
g15
(dp532
g19
g19
sssssssssS'X'
p533
(dp534
g6
(dp535
S"'"
p536
(dp537
g15
(dp538
g26
(dp539
g19
g19
sssssg91
(dp540
g182
(dp541
g79
(dp542
g58
(dp543
g91
(dp544
g19
g19
sssssssS'Z'
p545
(dp546
g79
(dp547
g30
(dp548
g26
(dp549
g41
(dp550
g182
(dp551
g79
(dp552
g58
(dp553
g91
(dp554
g19
g19
ssssssssss.