(dp0
S'A'
p1
(dp2
S'f'
p3
(dp4
S'g'
p5
(dp6
S'h'
p7
(dp8
S'a'
p9
(dp10
S'n'
p11
(dp12
S'i'
p13
(dp14
S's'
p15
(dp16
S't'
p17
(dp18
g9
(dp19
g11
(dp20
S'_end_'
p21
g21
sssssssssssS'l'
p22
(dp23
S'b'
p24
(dp25
g9
(dp26
g11
(dp27
g13
(dp28
g9
(dp29
g21
g21
ssssssg5
(dp30
S'e'
p31
(dp32
S'r'
p33
(dp34
g13
(dp35
g9
(dp36
g21
g21
sssssssg11
(dp37
S'd'
p38
(dp39
S'o'
p40
(dp41
g33
(dp42
g33
(dp43
g9
(dp44
g21
g21
ssssssg5
(dp45
g40
(dp46
g22
(dp47
g9
(dp48
g21
g21
sssssg17
(dp49
g13
(dp50
g5
(dp51
S'u'
p52
(dp53
g9
(dp54
S' '
p55
(dp56
g9
(dp57
g11
(dp58
g38
(dp59
g55
(dp60
S'B'
p61
(dp62
g9
(dp63
g33
(dp64
g24
(dp65
g52
(dp66
g38
(dp67
g9
(dp68
g21
g21
sssssssssssssssssssg33
(dp69
S'm'
p70
(dp71
g31
(dp72
g11
(dp73
g13
(dp74
g9
(dp75
g21
g21
ssssssg5
(dp76
g31
(dp77
g11
(dp78
g17
(dp79
g13
(dp80
g11
(dp81
g9
(dp82
g21
g21
sssssssssg52
(dp83
g15
(dp84
g17
(dp85
g33
(dp86
g9
(dp87
g22
(dp88
g13
(dp89
g9
(dp90
g21
g21
sssssg13
(dp91
g9
(dp92
g21
g21
sssssssS'z'
p93
(dp94
g31
(dp95
g33
(dp96
g24
(dp97
g9
(dp98
g13
(dp99
S'j'
p100
(dp101
g9
(dp102
g11
(dp103
g21
g21
sssssssssssS'C'
p104
(dp105
g9
(dp106
g24
(dp107
g40
(dp108
g55
(dp109
S'V'
p110
(dp111
g31
(dp112
g33
(dp113
g38
(dp114
g31
(dp115
g21
g21
sssssssssg70
(dp116
g24
(dp117
g40
(dp118
g38
(dp119
g13
(dp120
g9
(dp121
g21
g21
ssssssg31
(dp122
g33
(dp123
g40
(dp124
g40
(dp125
g11
(dp126
g21
g21
sssssssg11
(dp127
g9
(dp128
g38
(dp129
g9
(dp130
g21
g21
ssssssg1
(dp131
S'R'
p132
(dp133
g21
g21
sssg31
(dp134
g11
(dp135
g17
(dp136
g33
(dp137
g9
(dp138
g22
(dp139
g55
(dp140
g1
(dp141
g3
(dp142
g33
(dp143
g13
(dp144
S'c'
p145
(dp146
g9
(dp147
g11
(dp148
g55
(dp149
g132
(dp150
g31
(dp151
S'p'
p152
(dp153
g52
(dp154
g24
(dp155
g22
(dp156
g13
(dp157
g145
(dp158
g55
(dp159
g21
g21
sssssssssssssssssssssssssg7
(dp160
g9
(dp161
g38
(dp162
g21
g21
sssg13
(dp163
g22
(dp164
g31
(dp165
g21
g21
sssg11
(dp166
g9
(dp167
g21
g21
sssssg40
(dp168
g15
(dp169
g17
(dp170
g9
(dp171
g55
(dp172
g132
(dp173
g13
(dp174
g145
(dp175
g9
(dp176
g21
g21
sssssssssg70
(dp177
g40
(dp178
g33
(dp179
g40
(dp180
g15
(dp181
g21
g21
ssssssg22
(dp182
g40
(dp183
g70
(dp184
g24
(dp185
g13
(dp186
g9
(dp187
g21
g21
sssssssg17
(dp188
g31
(dp189
g55
(dp190
g38
(dp191
S"'"
p192
(dp193
S'I'
p194
(dp195
S'v'
p196
(dp197
g40
(dp198
g13
(dp199
g33
(dp200
g31
(dp201
g21
g21
sssssssssssssg33
(dp202
g40
(dp203
g9
(dp204
g17
(dp205
g13
(dp206
g9
(dp207
g21
g21
sssssssg52
(dp208
g24
(dp209
g9
(dp210
g21
g21
ssssS'y'
p211
(dp212
g152
(dp213
g33
(dp214
g52
(dp215
g15
(dp216
g21
g21
ssssssg93
(dp217
g31
(dp218
g145
(dp219
g7
(dp220
g55
(dp221
g132
(dp222
g31
(dp223
g152
(dp224
g52
(dp225
g24
(dp226
g22
(dp227
g13
(dp228
g145
(dp229
g21
g21
sssssssssssssssg61
(dp230
g9
(dp231
g7
(dp232
g9
(dp233
g70
(dp234
g9
(dp235
g15
(dp236
g21
g21
sssssg33
(dp237
g9
(dp238
g13
(dp239
g11
(dp240
g21
g21
ssssssg33
(dp241
g24
(dp242
g9
(dp243
g38
(dp244
g40
(dp245
g15
(dp246
g21
g21
sssssssg11
(dp247
g5
(dp248
g22
(dp249
g9
(dp250
g38
(dp251
g31
(dp252
g15
(dp253
g7
(dp254
g21
g21
ssssssssssg31
(dp255
g22
(dp256
g9
(dp257
g33
(dp258
g52
(dp259
g15
(dp260
g21
g21
sssssg13
(dp261
g93
(dp262
g31
(dp263
g21
g21
ssssg5
(dp264
g13
(dp265
g52
(dp266
g70
(dp267
g21
g21
ssssssg11
(dp268
g13
(dp269
g11
(dp270
g21
g21
sssssg7
(dp271
g52
(dp272
g17
(dp273
g9
(dp274
g11
(dp275
g21
g21
ssssssg40
(dp276
g15
(dp277
g11
(dp278
g13
(dp279
g9
(dp280
g55
(dp281
g9
(dp282
g11
(dp283
g38
(dp284
g55
(dp285
S'H'
p286
(dp287
g31
(dp288
g33
(dp289
g93
(dp290
g31
(dp291
g5
(dp292
g40
(dp293
g196
(dp294
g13
(dp295
g11
(dp296
g9
(dp297
g21
g21
sssssssssssssssssssssg22
(dp298
g13
(dp299
g196
(dp300
g13
(dp301
g9
(dp302
g21
g21
ssssssg17
(dp303
g15
(dp304
S'w'
p305
(dp306
g9
(dp307
g11
(dp308
g9
(dp309
g21
g21
ssssssssg33
(dp310
g9
(dp311
g93
(dp312
g13
(dp313
g22
(dp314
g21
g21
sssssg52
(dp315
g11
(dp316
g31
(dp317
g13
(dp318
g21
g21
ssssssg52
(dp319
g33
(dp320
g70
(dp321
g9
(dp322
g21
g21
sssS'k'
p323
(dp324
g13
(dp325
g11
(dp326
g9
(dp327
g55
(dp328
S'F'
p329
(dp330
g9
(dp331
g15
(dp332
g40
(dp333
g21
g21
ssssssssssg52
(dp334
g11
(dp335
g38
(dp336
g13
(dp337
g21
g21
ssssssg22
(dp338
g5
(dp339
g9
(dp340
g33
(dp341
g13
(dp342
g9
(dp343
g21
g21
sssssssssS'E'
p344
(dp345
g145
(dp346
g52
(dp347
g9
(dp348
g38
(dp349
g40
(dp350
g33
(dp351
g21
g21
sssssssg5
(dp352
g211
(dp353
g152
(dp354
g17
(dp355
g21
g21
sssssg22
(dp356
g55
(dp357
S'S'
p358
(dp359
g9
(dp360
g22
(dp361
g196
(dp362
g9
(dp363
g38
(dp364
g40
(dp365
g33
(dp366
g21
g21
sssssssssssS'q'
p367
(dp368
g52
(dp369
g9
(dp370
g17
(dp371
g40
(dp372
g33
(dp373
g13
(dp374
g9
(dp375
g22
(dp376
g55
(dp377
S'G'
p378
(dp379
g52
(dp380
g13
(dp381
g11
(dp382
g31
(dp383
g9
(dp384
g21
g21
sssssssssssssssssg15
(dp385
g17
(dp386
g40
(dp387
g11
(dp388
g13
(dp389
g9
(dp390
g21
g21
sssssssg33
(dp391
g13
(dp392
g17
(dp393
g33
(dp394
g31
(dp395
g9
(dp396
g21
g21
sssssssg17
(dp397
g7
(dp398
g13
(dp399
g40
(dp400
g152
(dp401
g13
(dp402
g9
(dp403
g21
g21
sssssssssS'D'
p404
(dp405
g100
(dp406
g13
(dp407
g24
(dp408
g40
(dp409
g52
(dp410
g17
(dp411
g13
(dp412
g21
g21
ssssssssg31
(dp413
g70
(dp414
g40
(dp415
g145
(dp416
g33
(dp417
g9
(dp418
g17
(dp419
g13
(dp420
g145
(dp421
g55
(dp422
g132
(dp423
g31
(dp424
g152
(dp425
g52
(dp426
g24
(dp427
g22
(dp428
g13
(dp429
g145
(dp430
g55
(dp431
g40
(dp432
g3
(dp433
g55
(dp434
g17
(dp435
g7
(dp436
g31
(dp437
g55
(dp438
g104
(dp439
g40
(dp440
g11
(dp441
g5
(dp442
g40
(dp443
g21
g21
sssssssssssssssssssssssssssssssg11
(dp444
g70
(dp445
g9
(dp446
g33
(dp447
g323
(dp448
g21
g21
sssssssg40
(dp449
g70
(dp450
g13
(dp451
g11
(dp452
g13
(dp453
g145
(dp454
g9
(dp455
g21
g21
sg11
(dp456
g55
(dp457
g132
(dp458
g31
(dp459
g152
(dp460
g52
(dp461
g24
(dp462
g22
(dp463
g13
(dp464
g145
(dp465
g21
g21
sssssssssssssssssssg378
(dp466
g9
(dp467
g24
(dp468
g40
(dp469
g11
(dp470
g21
g21
ssssg70
(dp471
g24
(dp472
g13
(dp473
g9
(dp474
g21
g21
ssssssg7
(dp475
g9
(dp476
g11
(dp477
g9
(dp478
g21
g21
sssssg33
(dp479
g31
(dp480
g31
(dp481
g145
(dp482
g31
(dp483
g21
g21
ssssg11
(dp484
g9
(dp485
g38
(dp486
g9
(dp487
g21
g21
sssssssg31
(dp488
g33
(dp489
g70
(dp490
g9
(dp491
g11
(dp492
g211
(dp493
g21
g21
ssssssg40
(dp494
g33
(dp495
g5
(dp496
g13
(dp497
g9
(dp498
g21
g21
sssssssg52
(dp499
g9
(dp500
g17
(dp501
g31
(dp502
g70
(dp503
g9
(dp504
g22
(dp505
g9
(dp506
g21
g21
ssssssssg13
(dp507
g11
(dp508
g31
(dp509
g9
(dp510
g21
g21
sS'-'
p511
(dp512
g61
(dp513
g13
(dp514
g15
(dp515
g15
(dp516
g9
(dp517
g52
(dp518
g21
g21
ssssssssssssg211
(dp519
g9
(dp520
g11
(dp521
g9
(dp522
g21
g21
sssssssg329
(dp523
g13
(dp524
g100
(dp525
g13
(dp526
g21
g21
sssg11
(dp527
g22
(dp528
g9
(dp529
g11
(dp530
g38
(dp531
g21
g21
sssssssg33
(dp532
g9
(dp533
g11
(dp534
g145
(dp535
g31
(dp536
g21
g21
sssssssg194
(dp537
g17
(dp538
g9
(dp539
g22
(dp540
g211
(dp541
g21
g21
sssssg145
(dp542
g31
(dp543
g22
(dp544
g9
(dp545
g11
(dp546
g38
(dp547
g21
g21
sssssssg33
(dp548
g9
(dp549
g367
(dp550
g21
g21
ssg11
(dp551
g21
g21
sssg31
(dp552
g22
(dp553
g9
(dp554
g11
(dp555
g38
(dp556
g21
g21
sssssssg15
(dp557
g33
(dp558
g9
(dp559
g31
(dp560
g22
(dp561
g21
g21
ssssssg11
(dp562
g38
(dp563
g13
(dp564
g9
(dp565
g21
g21
sssg40
(dp566
g11
(dp567
g31
(dp568
g15
(dp569
g13
(dp570
g9
(dp571
g21
g21
ssssssssssg286
(dp572
g9
(dp573
g13
(dp574
g17
(dp575
g13
(dp576
g21
g21
sssssg52
(dp577
g11
(dp578
g5
(dp579
g9
(dp580
g33
(dp581
g211
(dp582
g21
g21
sssssssg40
(dp583
g11
(dp584
g38
(dp585
g52
(dp586
g33
(dp587
g9
(dp588
g15
(dp589
g21
g21
sssssssssS'K'
p590
(dp591
g9
(dp592
g93
(dp593
g9
(dp594
g323
(dp595
g7
(dp596
g15
(dp597
g17
(dp598
g9
(dp599
g11
(dp600
g21
g21
ssssssssssg31
(dp601
g11
(dp602
g211
(dp603
g9
(dp604
g21
g21
sssssg13
(dp605
g33
(dp606
g13
(dp607
g24
(dp608
g9
(dp609
g17
(dp610
g13
(dp611
g21
g21
ssssssssg40
(dp612
g15
(dp613
g40
(dp614
g196
(dp615
g40
(dp616
g21
g21
ssssssg52
(dp617
g305
(dp618
g9
(dp619
g13
(dp620
g17
(dp621
g21
g21
ssssssg211
(dp622
g33
(dp623
g5
(dp624
g211
(dp625
g93
(dp626
g15
(dp627
g17
(dp628
g9
(dp629
g11
(dp630
g21
g21
sssssssssssS'J'
p631
(dp632
g9
(dp633
g152
(dp634
g9
(dp635
g11
(dp636
g21
g21
ssssg70
(dp637
g9
(dp638
g13
(dp639
g145
(dp640
g9
(dp641
g21
g21
sssssssg40
(dp642
g33
(dp643
g38
(dp644
g9
(dp645
g11
(dp646
g21
g21
sssssssS'M'
p647
(dp648
g9
(dp649
g145
(dp650
g31
(dp651
g38
(dp652
g40
(dp653
g11
(dp654
g13
(dp655
g9
(dp656
g21
g21
ssssssssg33
(dp657
g15
(dp658
g7
(dp659
g9
(dp660
g22
(dp661
g22
(dp662
g55
(dp663
g194
(dp664
g15
(dp665
g22
(dp666
g9
(dp667
g11
(dp668
g38
(dp669
g15
(dp670
g21
g21
sssssssssssssssg52
(dp671
g33
(dp672
g13
(dp673
g17
(dp674
g9
(dp675
g11
(dp676
g13
(dp677
g9
(dp678
g21
g21
sssssg13
(dp679
g52
(dp680
g15
(dp681
g21
g21
ssssssssg38
(dp682
g9
(dp683
g5
(dp684
g9
(dp685
g15
(dp686
g145
(dp687
g9
(dp688
g33
(dp689
g21
g21
sssssssssg22
(dp690
g9
(dp691
g211
(dp692
g15
(dp693
g13
(dp694
g9
(dp695
g21
g21
sssssg305
(dp696
g13
(dp697
g21
g21
ssssg13
(dp698
g21
g21
ssg38
(dp699
g13
(dp700
g196
(dp701
g31
(dp702
g15
(dp703
g21
g21
ssssssg17
(dp704
g9
(dp705
g21
g21
sssssg13
(dp706
g145
(dp707
g33
(dp708
g40
(dp709
g11
(dp710
g31
(dp711
g15
(dp712
g13
(dp713
g9
(dp714
g21
g21
ssssssssssg31
(dp715
S'x'
p716
(dp717
g13
(dp718
g145
(dp719
g40
(dp720
g21
g21
ssssssg211
(dp721
g9
(dp722
g11
(dp723
g70
(dp724
g9
(dp725
g33
(dp726
g55
(dp727
g21
g21
ssssssssg40
(dp728
g33
(dp729
g40
(dp730
g145
(dp731
g145
(dp732
g40
(dp733
g21
g21
ssssssg22
(dp734
g38
(dp735
g40
(dp736
g196
(dp737
g9
(dp738
g21
g21
ssssssg93
(dp739
g9
(dp740
g70
(dp741
g24
(dp742
g13
(dp743
g367
(dp744
g52
(dp745
g31
(dp746
g21
g21
sssssssssg11
(dp747
g9
(dp748
g145
(dp749
g40
(dp750
g21
g21
ssssg17
(dp751
g31
(dp752
g11
(dp753
g31
(dp754
g5
(dp755
g33
(dp756
g40
(dp757
g21
g21
ssssssssg5
(dp758
g40
(dp759
g22
(dp760
g13
(dp761
g9
(dp762
g21
g21
sssssssssS'L'
p763
(dp764
g9
(dp765
g17
(dp766
g196
(dp767
g13
(dp768
g9
(dp769
g21
g21
sssssg40
(dp770
g15
(dp771
g21
g21
ssssg13
(dp772
g24
(dp773
g211
(dp774
g9
(dp775
g21
g21
sssg31
(dp776
g33
(dp777
g13
(dp778
g9
(dp779
g21
g21
ssssssg31
(dp780
g145
(dp781
g7
(dp782
g17
(dp783
g31
(dp784
g11
(dp785
g15
(dp786
g17
(dp787
g31
(dp788
g13
(dp789
g11
(dp790
g21
g21
ssssssssssssg17
(dp791
g7
(dp792
g52
(dp793
g9
(dp794
g11
(dp795
g13
(dp796
g9
(dp797
g21
g21
sssssssssg31
(dp798
g15
(dp799
g40
(dp800
g17
(dp801
g7
(dp802
g40
(dp803
g21
g21
ssssssg24
(dp804
g9
(dp805
g11
(dp806
g40
(dp807
g11
(dp808
g21
g21
sssssssg52
(dp809
g716
(dp810
g31
(dp811
g70
(dp812
g24
(dp813
g40
(dp814
g52
(dp815
g33
(dp816
g5
(dp817
g21
g21
sssssssssssS'O'
p818
(dp819
g70
(dp820
g9
(dp821
g11
(dp822
g21
g21
sssssS'N'
p823
(dp824
g9
(dp825
g52
(dp826
g33
(dp827
g52
(dp828
g21
g21
ssssg70
(dp829
g13
(dp830
g24
(dp831
g13
(dp832
g9
(dp833
g21
g21
sssssssg13
(dp834
g145
(dp835
g9
(dp836
g33
(dp837
g9
(dp838
g5
(dp839
g52
(dp840
g9
(dp841
g21
g21
ssssssssg5
(dp842
g31
(dp843
g33
(dp844
g21
g21
sg13
(dp845
g9
(dp846
g21
g21
sssssssg31
(dp847
g152
(dp848
g9
(dp849
g22
(dp850
g21
g21
ssssg17
(dp851
g7
(dp852
g31
(dp853
g33
(dp854
g22
(dp855
g9
(dp856
g11
(dp857
g38
(dp858
g15
(dp859
g21
g21
ssssssssssg305
(dp860
g55
(dp861
S'Z'
p862
(dp863
g31
(dp864
g9
(dp865
g22
(dp866
g9
(dp867
g11
(dp868
g38
(dp869
g21
g21
sssssssssssg40
(dp870
g33
(dp871
g17
(dp872
g7
(dp873
g55
(dp874
g590
(dp875
g40
(dp876
g33
(dp877
g31
(dp878
g9
(dp879
g21
g21
sssssssssg305
(dp880
g9
(dp881
g211
(dp882
g21
g21
sssssssS'Q'
p883
(dp884
g9
(dp885
g17
(dp886
g9
(dp887
g33
(dp888
g21
g21
ssssssS'P'
p889
(dp890
g9
(dp891
g152
(dp892
g52
(dp893
g9
(dp894
g55
(dp895
g823
(dp896
g31
(dp897
g305
(dp898
g55
(dp899
g378
(dp900
g52
(dp901
g13
(dp902
g11
(dp903
g31
(dp904
g9
(dp905
g21
g21
sssssssssssssssg323
(dp906
g13
(dp907
g15
(dp908
g17
(dp909
g9
(dp910
g11
(dp911
g21
g21
sssssssg33
(dp912
g9
(dp913
g5
(dp914
g52
(dp915
g9
(dp916
g211
(dp917
g21
g21
sssssssg22
(dp918
g9
(dp919
g52
(dp920
g21
g21
sssg31
(dp921
g15
(dp922
g17
(dp923
g13
(dp924
g11
(dp925
g31
(dp926
g21
g21
ssssssssg11
(dp927
g9
(dp928
g70
(dp929
g9
(dp930
g21
g21
ssssssg7
(dp931
g13
(dp932
g22
(dp933
g13
(dp934
g152
(dp935
g152
(dp936
g13
(dp937
g11
(dp938
g31
(dp939
g15
(dp940
g21
g21
sssssssssssg31
(dp941
g33
(dp942
g52
(dp943
g21
g21
ssssg40
(dp944
g33
(dp945
g17
(dp946
g52
(dp947
g5
(dp948
g9
(dp949
g22
(dp950
g21
g21
sssssssg22
(dp951
g9
(dp952
g11
(dp953
g38
(dp954
g21
g21
sssssssg358
(dp955
g9
(dp956
g13
(dp957
g11
(dp958
g17
(dp959
g55
(dp960
g590
(dp961
g13
(dp962
g17
(dp963
g17
(dp964
g15
(dp965
g55
(dp966
g9
(dp967
g11
(dp968
g38
(dp969
g55
(dp970
g823
(dp971
g31
(dp972
g196
(dp973
g13
(dp974
g15
(dp975
g21
g21
ssssssssssssssssg763
(dp976
g52
(dp977
g145
(dp978
g13
(dp979
g9
(dp980
g21
g21
ssssssg110
(dp981
g13
(dp982
g11
(dp983
g145
(dp984
g31
(dp985
g11
(dp986
g17
(dp987
g55
(dp988
g9
(dp989
g11
(dp990
g38
(dp991
g55
(dp992
g17
(dp993
g7
(dp994
g31
(dp995
g55
(dp996
g378
(dp997
g33
(dp998
g31
(dp999
g11
(dp1000
g9
(dp1001
g38
(dp1002
g13
(dp1003
g11
(dp1004
g31
(dp1005
g15
(dp1006
g21
g21
sssssssssssssssssssssssssssssssg52
(dp1007
g38
(dp1008
g13
(dp1009
g55
(dp1010
g1
(dp1011
g33
(dp1012
g9
(dp1013
g24
(dp1014
g13
(dp1015
g9
(dp1016
g21
g21
sssssssssssg70
(dp1017
g40
(dp1018
g9
(dp1019
g21
g21
ssssg40
(dp1020
g55
(dp1021
S'T'
p1022
(dp1023
g40
(dp1024
g70
(dp1025
g31
(dp1026
g55
(dp1027
g9
(dp1028
g11
(dp1029
g38
(dp1030
g55
(dp1031
g889
(dp1032
g33
(dp1033
g13
(dp1034
g11
(dp1035
g145
(dp1036
g13
(dp1037
g152
(dp1038
g31
(dp1039
g21
g21
ssssssssssssssssssssg11
(dp1040
g55
(dp1041
g647
(dp1042
g9
(dp1043
g33
(dp1044
g13
(dp1045
g11
(dp1046
g40
(dp1047
g21
g21
ssssssssssg31
(dp1048
g211
(dp1049
g145
(dp1050
g7
(dp1051
g31
(dp1052
g22
(dp1053
g22
(dp1054
g31
(dp1055
g15
(dp1056
g21
g21
sssssssssg33
(dp1057
g24
(dp1058
g13
(dp1059
g9
(dp1060
g21
g21
sssssg11
(dp1061
g31
(dp1062
g5
(dp1063
g9
(dp1064
g22
(dp1065
g21
g21
sssssssg13
(dp1066
g31
(dp1067
g33
(dp1068
g33
(dp1069
g9
(dp1070
g55
(dp1071
g763
(dp1072
g31
(dp1073
g40
(dp1074
g11
(dp1075
g31
(dp1076
g21
g21
sssssssssssg11
(dp1077
g5
(dp1078
g9
(dp1079
g152
(dp1080
g40
(dp1081
g33
(dp1082
g31
(dp1083
g21
g21
sssssssssg22
(dp1084
g40
(dp1085
g196
(dp1086
g9
(dp1087
g323
(dp1088
g13
(dp1089
g9
(dp1090
g21
g21
sssssg31
(dp1091
g11
(dp1092
g13
(dp1093
g9
(dp1094
g21
g21
ssssssssg40
(dp1095
g52
(dp1096
g17
(dp1097
g7
(dp1098
g55
(dp1099
g1
(dp1100
g3
(dp1101
g33
(dp1102
g13
(dp1103
g145
(dp1104
g9
(dp1105
g21
g21
sssssssg590
(dp1106
g40
(dp1107
g33
(dp1108
g31
(dp1109
g9
(dp1110
g21
g21
ssssssg358
(dp1111
g52
(dp1112
g38
(dp1113
g9
(dp1114
g11
(dp1115
g21
g21
ssssssssssg70
(dp1116
g9
(dp1117
g22
(dp1118
g13
(dp1119
g9
(dp1120
g21
g21
ssssssg22
(dp1121
g40
(dp1122
g70
(dp1123
g40
(dp1124
g11
(dp1125
g55
(dp1126
g194
(dp1127
g15
(dp1128
g22
(dp1129
g9
(dp1130
g11
(dp1131
g38
(dp1132
g15
(dp1133
g21
g21
sssssssssssssssg152
(dp1134
g9
(dp1135
g13
(dp1136
g11
(dp1137
g21
g21
sssssg33
(dp1138
g13
(dp1139
g55
(dp1140
g763
(dp1141
g9
(dp1142
g11
(dp1143
g323
(dp1144
g9
(dp1145
g21
g21
sssssssssg52
(dp1146
g33
(dp1147
g13
(dp1148
g11
(dp1149
g9
(dp1150
g70
(dp1151
g31
(dp1152
g21
g21
sssssssg38
(dp1153
g9
(dp1154
g11
(dp1155
g21
g21
sssssg305
(dp1156
g9
(dp1157
g93
(dp1158
g13
(dp1159
g22
(dp1160
g9
(dp1161
g11
(dp1162
g38
(dp1163
g21
g21
ssssssssg13
(dp1164
g17
(dp1165
g93
(dp1166
g31
(dp1167
g33
(dp1168
g22
(dp1169
g9
(dp1170
g11
(dp1171
g38
(dp1172
g21
g21
ssssssssssg31
(dp1173
g38
(dp1174
g31
(dp1175
g11
(dp1176
g21
g21
ssssssg211
(dp1177
g33
(dp1178
g13
(dp1179
g9
(dp1180
g21
g21
ssssssg132
(dp1181
g52
(dp1182
g15
(dp1183
g15
(dp1184
g13
(dp1185
g9
(dp1186
g21
g21
ssssssg31
(dp1187
g152
(dp1188
g52
(dp1189
g24
(dp1190
g22
(dp1191
g13
(dp1192
g145
(dp1193
g55
(dp1194
g40
(dp1195
g3
(dp1196
g55
(dp1197
g17
(dp1198
g7
(dp1199
g31
(dp1200
g55
(dp1201
g104
(dp1202
g40
(dp1203
g11
(dp1204
g5
(dp1205
g40
(dp1206
g21
g21
sssssssssssssssssssssg305
(dp1207
g9
(dp1208
g11
(dp1209
g38
(dp1210
g9
(dp1211
g21
g21
ssssssg40
(dp1212
g70
(dp1213
g9
(dp1214
g11
(dp1215
g13
(dp1216
g9
(dp1217
g21
g21
ssssssssS'U'
p1218
(dp1219
g1
(dp1220
g344
(dp1221
g21
g21
sssg5
(dp1222
g9
(dp1223
g11
(dp1224
g38
(dp1225
g9
(dp1226
g21
g21
ssssssg323
(dp1227
g33
(dp1228
g9
(dp1229
g13
(dp1230
g11
(dp1231
g31
(dp1232
g21
g21
sssssssg11
(dp1233
g13
(dp1234
g17
(dp1235
g31
(dp1236
g38
(dp1237
g55
(dp1238
g1
(dp1239
g33
(dp1240
g9
(dp1241
g24
(dp1242
g55
(dp1243
g344
(dp1244
g70
(dp1245
g13
(dp1246
g33
(dp1247
g9
(dp1248
g17
(dp1249
g31
(dp1250
g15
(dp1251
g55
(dp1252
g21
g21
sssssssssssssssg590
(dp1253
g13
(dp1254
g11
(dp1255
g5
(dp1256
g38
(dp1257
g40
(dp1258
g70
(dp1259
g55
(dp1260
g21
g21
sssssssssg358
(dp1261
g17
(dp1262
g9
(dp1263
g17
(dp1264
g31
(dp1265
g15
(dp1266
g55
(dp1267
g40
(dp1268
g3
(dp1269
g55
(dp1270
g1
(dp1271
g70
(dp1272
g31
(dp1273
g33
(dp1274
g13
(dp1275
g145
(dp1276
g9
(dp1277
g55
(dp1278
g21
g21
sssssssssssssssssssssssssg358
(dp1279
g1
(dp1280
g21
g21
sssg33
(dp1281
g52
(dp1282
g5
(dp1283
g52
(dp1284
g9
(dp1285
g211
(dp1286
g21
g21
sssssssg93
(dp1287
g24
(dp1288
g31
(dp1289
g323
(dp1290
g13
(dp1291
g15
(dp1292
g17
(dp1293
g9
(dp1294
g11
(dp1295
g21
g21
ssssssssssg590
(dp1296
g21
g21
sssg1022
(dp1297
g9
(dp1298
g13
(dp1299
g305
(dp1300
g9
(dp1301
g11
(dp1302
g21
g21
sssssg100
(dp1303
g13
(dp1304
g323
(dp1305
g13
(dp1306
g15
(dp1307
g17
(dp1308
g9
(dp1309
g11
(dp1310
g21
g21
sssssssssg11
(dp1311
g93
(dp1312
g9
(dp1313
g11
(dp1314
g13
(dp1315
g9
(dp1316
g21
g21
ssssssssg13
(dp1317
g70
(dp1318
g40
(dp1319
g33
(dp1320
g511
(dp1321
g763
(dp1322
g31
(dp1323
g15
(dp1324
g17
(dp1325
g31
(dp1326
g21
g21
sssssssssssg7
(dp1327
g9
(dp1328
g13
(dp1329
g22
(dp1330
g9
(dp1331
g11
(dp1332
g38
(dp1333
g21
g21
ssssssssg40
(dp1334
g5
(dp1335
g40
(dp1336
g21
g21
sssg11
(dp1337
g5
(dp1338
g9
(dp1339
g21
g21
sssssg33
(dp1340
g13
(dp1341
g11
(dp1342
g13
(dp1343
g38
(dp1344
g9
(dp1345
g38
(dp1346
g55
(dp1347
g9
(dp1348
g11
(dp1349
g38
(dp1350
g55
(dp1351
g1022
(dp1352
g40
(dp1353
g24
(dp1354
g9
(dp1355
g5
(dp1356
g40
(dp1357
g21
g21
sssssssssssssssssssg52
(dp1358
g33
(dp1359
g323
(dp1360
g70
(dp1361
g31
(dp1362
g11
(dp1363
g13
(dp1364
g15
(dp1365
g17
(dp1366
g9
(dp1367
g11
(dp1368
g21
g21
sssssssssg31
(dp1369
g211
(dp1370
g21
g21
sssssg196
(dp1371
g9
(dp1372
g22
(dp1373
g52
(dp1374
g21
g21
sssssg11
(dp1375
g13
(dp1376
g15
(dp1377
g13
(dp1378
g9
(dp1379
g21
g21
ssssssssg110
(dp1380
g9
(dp1381
g17
(dp1382
g13
(dp1383
g145
(dp1384
g9
(dp1385
g11
(dp1386
g55
(dp1387
g104
(dp1388
g13
(dp1389
g17
(dp1390
g211
(dp1391
g55
(dp1392
g21
g21
ssssssssssssg11
(dp1393
g52
(dp1394
g9
(dp1395
g17
(dp1396
g52
(dp1397
g21
g21
sssssssg13
(dp1398
g31
(dp1399
g17
(dp1400
g11
(dp1401
g9
(dp1402
g70
(dp1403
g21
g21
sssssssg31
(dp1404
g11
(dp1405
g31
(dp1406
g93
(dp1407
g52
(dp1408
g31
(dp1409
g22
(dp1410
g9
(dp1411
g21
g21
ssssssssssS'Y'
p1412
(dp1413
g31
(dp1414
g70
(dp1415
g31
(dp1416
g11
(dp1417
g21
g21
ssssssg862
(dp1418
g9
(dp1419
g70
(dp1420
g24
(dp1421
g13
(dp1422
g9
(dp1423
g21
g21
ssssssg13
(dp1424
g70
(dp1425
g24
(dp1426
g9
(dp1427
g24
(dp1428
g305
(dp1429
g31
(dp1430
g21
g21
sssssssss.